target datalayout = "e-m:e-p270:32:32-p271:32:32-p272:64:64-i64:64-i128:128-f80:128-n8:16:32:64-S128"
target triple = "x86_64-pc-linux-gnu"

%struct.IncrblobChannel = type { ptr, ptr, i64, i32, ptr, ptr, ptr }

; Function Attrs: nounwind uwtable
define internal i32 @incrblobOutput(ptr noundef %0, ptr noundef %1, i32 noundef %2, ptr noundef %3) #0 {
  %5 = alloca i32, align 4
  %6 = alloca ptr, align 8
  %7 = alloca ptr, align 8
  %8 = alloca i32, align 4
  %9 = alloca ptr, align 8
  %10 = alloca ptr, align 8
  %11 = alloca i64, align 8
  %12 = alloca i64, align 8
  %13 = alloca i32, align 4
  %14 = alloca i32, align 4
  store ptr %0, ptr %6, align 8, !tbaa !15
  store ptr %1, ptr %7, align 8, !tbaa !18
  store i32 %2, ptr %8, align 4, !tbaa !8
  store ptr %3, ptr %9, align 8, !tbaa !164
  call void @llvm.lifetime.start.p0(i64 8, ptr %10) #10
  %15 = load ptr, ptr %6, align 8, !tbaa !15
  store ptr %15, ptr %10, align 8, !tbaa !198
  call void @llvm.lifetime.start.p0(i64 8, ptr %11) #10
  %16 = load i32, ptr %8, align 4, !tbaa !8
  %17 = sext i32 %16 to i64
  store i64 %17, ptr %11, align 8, !tbaa !97
  call void @llvm.lifetime.start.p0(i64 8, ptr %12) #10
  call void @llvm.lifetime.start.p0(i64 4, ptr %13) #10
  %18 = load ptr, ptr %10, align 8, !tbaa !198
  %19 = getelementptr inbounds nuw %struct.IncrblobChannel, ptr %18, i32 0, i32 0
  %20 = load ptr, ptr %19, align 8, !tbaa !201
  %21 = call i32 @sqlite3_blob_bytes(ptr noundef %20)
  %22 = sext i32 %21 to i64
  store i64 %22, ptr %12, align 8, !tbaa !97
  %23 = load ptr, ptr %10, align 8, !tbaa !198
  %24 = getelementptr inbounds nuw %struct.IncrblobChannel, ptr %23, i32 0, i32 2
  %25 = load i64, ptr %24, align 8, !tbaa !237
  %26 = load i64, ptr %11, align 8, !tbaa !97
  %27 = add nsw i64 %25, %26
  %28 = load i64, ptr %12, align 8, !tbaa !97
  %29 = icmp sgt i64 %27, %28
  br i1 %29, label %30, label %32

30:                                               ; preds = %4
  %31 = load ptr, ptr %9, align 8, !tbaa !164
  store i32 22, ptr %31, align 4, !tbaa !8
  store i32 -1, ptr %5, align 4
  store i32 1, ptr %14, align 4
  br label %60

32:                                               ; preds = %4
  %33 = load i64, ptr %11, align 8, !tbaa !97
  %34 = icmp sle i64 %33, 0
  br i1 %34, label %35, label %36

35:                                               ; preds = %32
  store i32 0, ptr %5, align 4
  store i32 1, ptr %14, align 4
  br label %60

36:                                               ; preds = %32
  %37 = load ptr, ptr %10, align 8, !tbaa !198
  %38 = getelementptr inbounds nuw %struct.IncrblobChannel, ptr %37, i32 0, i32 0
  %39 = load ptr, ptr %38, align 8, !tbaa !201
  %40 = load ptr, ptr %7, align 8, !tbaa !18
  %41 = load i64, ptr %11, align 8, !tbaa !97
  %42 = trunc i64 %41 to i32
  %43 = load ptr, ptr %10, align 8, !tbaa !198
  %44 = getelementptr inbounds nuw %struct.IncrblobChannel, ptr %43, i32 0, i32 2
  %45 = load i64, ptr %44, align 8, !tbaa !237
  %46 = trunc i64 %45 to i32
  %47 = call i32 @sqlite3_blob_write(ptr noundef %39, ptr noundef %40, i32 noundef %42, i32 noundef %46)
  store i32 %47, ptr %13, align 4, !tbaa !8
  %48 = load i32, ptr %13, align 4, !tbaa !8
  %49 = icmp ne i32 %48, 0
  br i1 %49, label %50, label %52

50:                                               ; preds = %36
  %51 = load ptr, ptr %9, align 8, !tbaa !164
  store i32 5, ptr %51, align 4, !tbaa !8
  store i32 -1, ptr %5, align 4
  store i32 1, ptr %14, align 4
  br label %60

52:                                               ; preds = %36
  %53 = load i64, ptr %11, align 8, !tbaa !97
  %54 = load ptr, ptr %10, align 8, !tbaa !198
  %55 = getelementptr inbounds nuw %struct.IncrblobChannel, ptr %54, i32 0, i32 2
  %56 = load i64, ptr %55, align 8, !tbaa !237
  %57 = add nsw i64 %56, %53
  store i64 %57, ptr %55, align 8, !tbaa !237
  %58 = load i64, ptr %11, align 8, !tbaa !97
  %59 = trunc i64 %58 to i32
  store i32 %59, ptr %5, align 4
  store i32 1, ptr %14, align 4
  br label %60

60:                                               ; preds = %52, %50, %35, %30
  call void @llvm.lifetime.end.p0(i64 4, ptr %13) #10
  call void @llvm.lifetime.end.p0(i64 8, ptr %12) #10
  call void @llvm.lifetime.end.p0(i64 8, ptr %11) #10
  call void @llvm.lifetime.end.p0(i64 8, ptr %10) #10
  %61 = load i32, ptr %5, align 4
  ret i32 %61
}