; Function Attrs: nounwind uwtable
define internal range(i32 -1, -2147483648) i32 @incrblobOutput(ptr noundef captures(none) %0, ptr noundef %1, i32 noundef %2, ptr noundef writeonly captures(none) %3) #0 {
  %5 = sext i32 %2 to i64
  %6 = load ptr, ptr %0, align 8, !tbaa !189
  %7 = tail call i32 @sqlite3_blob_bytes(ptr noundef %6) #14
  %8 = sext i32 %7 to i64
  %9 = getelementptr inbounds nuw i8, ptr %0, i64 16
  %10 = load i64, ptr %9, align 8, !tbaa !210
  %11 = add nsw i64 %10, %5
  %12 = icmp sgt i64 %11, %8
  br i1 %12, label %13, label %14

13:                                               ; preds = %4
  store i32 22, ptr %3, align 4, !tbaa !12
  br label %24

14:                                               ; preds = %4
  %15 = icmp slt i32 %2, 1
  br i1 %15, label %24, label %16

16:                                               ; preds = %14
  %17 = load ptr, ptr %0, align 8, !tbaa !189
  %18 = trunc i64 %10 to i32
  %19 = tail call i32 @sqlite3_blob_write(ptr noundef %17, ptr noundef %1, i32 noundef %2, i32 noundef %18) #14
  %.not = icmp eq i32 %19, 0
  br i1 %.not, label %21, label %20

20:                                               ; preds = %16
  store i32 5, ptr %3, align 4, !tbaa !12
  br label %24

21:                                               ; preds = %16
  %22 = load i64, ptr %9, align 8, !tbaa !210
  %23 = add nsw i64 %22, %5
  store i64 %23, ptr %9, align 8, !tbaa !210
  br label %24

24:                                               ; preds = %14, %21, %20, %13
  %.0 = phi i32 [ -1, %13 ], [ -1, %20 ], [ %2, %21 ], [ 0, %14 ]
  ret i32 %.0
}